; Function Attrs: mustprogress uwtable
define hidden void @_ZN3opt10preprocessC2ER6solver(ptr nocapture noundef nonnull writeonly align 8 dereferenceable(32) %this, ptr noundef nonnull align 8 dereferenceable(96) %s) unnamed_addr #3 align 2 {
entry:
  %vtable = load ptr, ptr %s, align 8
  %vfn = getelementptr inbounds i8, ptr %vtable, i64 72
  %0 = load ptr, ptr %vfn, align 8
  %call = tail call noundef nonnull align 8 dereferenceable(976) ptr %0(ptr noundef nonnull align 8 dereferenceable(72) %s)
  store ptr %call, ptr %this, align 8
  %s2 = getelementptr inbounds i8, ptr %this, i64 8
  store ptr %s, ptr %s2, align 8
  %m_trail = getelementptr inbounds i8, ptr %this, i64 16
  %1 = ptrtoint ptr %call to i64
  store i64 %1, ptr %m_trail, align 8
  %m_nodes.i.i = getelementptr inbounds i8, ptr %this, i64 24
  store ptr null, ptr %m_nodes.i.i, align 8
  ret void
}